(dp0
S'w_decay_factor'
p1
F1.0100588794428301e-05
sS'attn_score_func'
p2
S'softmax'
p3
sS'rnn_dim'
p4
I256
sS'n_filter'
p5
I64
sS'pool_len'
p6
I2
sS'lr'
p7
cnumpy.core.multiarray
scalar
p8
(cnumpy
dtype
p9
(S'f8'
p10
I0
I1
tp11
Rp12
(I3
S'<'
p13
NNNI-1
I-1
I0
tp14
bS'y\x12Q"\x8f\xb6Y?'
p15
tp16
Rp17
sS'batch_size'
p18
I64
sS'filter_len'
p19
I5
sS'ent_vec_dim'
p20
I16
sS'attr_vec_dim'
p21
I8
s.