(dp0
S'w_decay_factor'
p1
F6.040276607129736e-05
sS'attn_score_func'
p2
S'h_sigmoid'
p3
sS'attr_vec_dim'
p4
I32
sS'cell_clip'
p5
NsS'use_convolution'
p6
I01
sS'rnn_dim'
p7
I200
sS'n_filter'
p8
I128
sS'pool_len'
p9
I1
sS'lr'
p10
cnumpy.core.multiarray
scalar
p11
(cnumpy
dtype
p12
(S'f8'
p13
I0
I1
tp14
Rp15
(I3
S'<'
p16
NNNI-1
I-1
I0
tp17
bS'C\x1c\xfc\x18\xd4\x85Z?'
p18
tp19
Rp20
sS'batch_size'
p21
I16
sS'filter_len'
p22
I5
sS'ent_vec_dim'
p23
I128
sS'rnn_unit'
p24
S'BasicLSTM'
p25
s.